; Function Attrs: mustprogress nounwind uwtable
define hidden void @_ZNK12XStatSampler17collect_and_resetEv(ptr dead_on_unwind noalias nocapture writable writeonly sret(%struct.XStatSamplerData) align 8 %0, ptr nocapture noundef nonnull readonly align 8 dereferenceable(40) %1) local_unnamed_addr #0 align 2 {
  %3 = getelementptr inbounds i8, ptr %0, i64 8
  tail call void @llvm.memset.p0.i64(ptr noundef nonnull align 8 dereferenceable(24) %3, i8 0, i64 16, i1 false)
  %4 = load i32, ptr @_ZN2os16_processor_countE, align 4
  %.not18 = icmp eq i32 %4, 0
  br i1 %.not18, label %37, label %.lr.ph

.lr.ph:                                           ; preds = %2
  %5 = getelementptr inbounds i8, ptr %1, i64 20
  %6 = getelementptr inbounds i8, ptr %0, i64 8
  %7 = getelementptr inbounds i8, ptr %0, i64 16
  %.pre22 = load i64, ptr @_ZN10XStatValue5_baseE, align 8
  %.pre24 = load i32, ptr @_ZN10XStatValue11_cpu_offsetE, align 4
  br label %8

8:                                                ; preds = %.lr.ph, %30
  %9 = phi i32 [ %.pre24, %.lr.ph ], [ %31, %30 ]
  %10 = phi i64 [ %.pre22, %.lr.ph ], [ %32, %30 ]
  %11 = phi i64 [ 0, %.lr.ph ], [ %33, %30 ]
  %12 = phi i64 [ 0, %.lr.ph ], [ %34, %30 ]
  %.013 = phi i32 [ 0, %.lr.ph ], [ %36, %30 ]
  %13 = phi i64 [ 0, %.lr.ph ], [ %35, %30 ]
  %14 = mul i32 %9, %.013
  %15 = zext i32 %14 to i64
  %16 = add i64 %10, %15
  %17 = load i32, ptr %5, align 4
  %18 = zext i32 %17 to i64
  %19 = add i64 %16, %18
  %20 = inttoptr i64 %19 to ptr
  %21 = load i64, ptr %20, align 8
  %.not = icmp eq i64 %21, 0
  br i1 %.not, label %30, label %22

22:                                               ; preds = %8
  %23 = tail call noundef i64 asm sideeffect "xchgq ($2),$0", "=r,0,r,~{memory},~{dirflag},~{fpsr},~{flags}"(i64 0, ptr nonnull %20) #22, !srcloc !6
  %24 = getelementptr inbounds i8, ptr %20, i64 8
  %25 = tail call noundef i64 asm sideeffect "xchgq ($2),$0", "=r,0,r,~{memory},~{dirflag},~{fpsr},~{flags}"(i64 0, ptr nonnull %24) #22, !srcloc !6
  %26 = getelementptr inbounds i8, ptr %20, i64 16
  %27 = tail call noundef i64 asm sideeffect "xchgq ($2),$0", "=r,0,r,~{memory},~{dirflag},~{fpsr},~{flags}"(i64 0, ptr nonnull %26) #22, !srcloc !6
  %28 = add i64 %13, %23
  %29 = add i64 %12, %25
  %spec.select = tail call i64 @llvm.umax.i64(i64 %11, i64 %27)
  %.pre = load i64, ptr @_ZN10XStatValue5_baseE, align 8
  %.pre23 = load i32, ptr @_ZN10XStatValue11_cpu_offsetE, align 4
  br label %30

30:                                               ; preds = %22, %8
  %31 = phi i32 [ %9, %8 ], [ %.pre23, %22 ]
  %32 = phi i64 [ %10, %8 ], [ %.pre, %22 ]
  %33 = phi i64 [ %11, %8 ], [ %spec.select, %22 ]
  %34 = phi i64 [ %12, %8 ], [ %29, %22 ]
  %35 = phi i64 [ %13, %8 ], [ %28, %22 ]
  %36 = add nuw i32 %.013, 1
  %exitcond.not = icmp eq i32 %36, %4
  br i1 %exitcond.not, label %._crit_edge, label %8, !llvm.loop !7

._crit_edge:                                      ; preds = %30
  store i64 %34, ptr %6, align 8
  store i64 %33, ptr %7, align 8
  br label %37

37:                                               ; preds = %._crit_edge, %2
  %.lcssa = phi i64 [ %35, %._crit_edge ], [ 0, %2 ]
  store i64 %.lcssa, ptr %0, align 8
  ret void
}